; Function Attrs: mustprogress uwtable
define noundef i64 @_ZN9syscall_t10sys_getcwdEmmmmmmm(ptr nocapture noundef nonnull readonly align 8 dereferenceable(176) %0, i64 noundef %1, i64 noundef %2, i64 %3, i64 %4, i64 %5, i64 %6, i64 %7) #3 align 2 personality ptr @__gxx_personality_v0 {
  %9 = alloca %"class.std::vector.40", align 8
  %10 = alloca %"class.std::allocator.20", align 1
  %11 = alloca %"class.std::__cxx11::basic_string", align 8
  call void @_ZNSaIcEC1Ev(ptr noundef nonnull align 1 dereferenceable(1) %10) #26
  invoke void @_ZNSt6vectorIcSaIcEEC2EmRKS0_(ptr noundef nonnull align 8 dereferenceable(24) %9, i64 noundef %2, ptr noundef nonnull align 1 dereferenceable(1) %10)
          to label %12 unwind label %21

12:                                               ; preds = %8
  call void @_ZNSaIcED1Ev(ptr noundef nonnull align 1 dereferenceable(1) %10) #26
  %13 = load ptr, ptr %9, align 8
  %14 = call ptr @getcwd(ptr noundef %13, i64 noundef %2) #26
  %15 = icmp eq ptr %14, null
  br i1 %15, label %16, label %25

16:                                               ; preds = %12
  %17 = tail call ptr @__errno_location() #30
  %18 = load i32, ptr %17, align 4
  %19 = sub nsw i32 0, %18
  %20 = sext i32 %19 to i64
  br label %49

21:                                               ; preds = %8
  %22 = landingpad { ptr, i32 }
          cleanup
  call void @_ZNSaIcED1Ev(ptr noundef nonnull align 1 dereferenceable(1) %10) #26
  br label %53

23:                                               ; preds = %25
  %24 = landingpad { ptr, i32 }
          cleanup
  br label %52

25:                                               ; preds = %12
  %26 = load ptr, ptr %9, align 8
  invoke void @_ZN9syscall_t11undo_chrootB5cxx11EPKc(ptr dead_on_unwind nonnull writable sret(%"class.std::__cxx11::basic_string") align 8 %11, ptr noundef nonnull align 8 dereferenceable(176) %0, ptr noundef %26)
          to label %27 unwind label %23

27:                                               ; preds = %25
  %28 = getelementptr inbounds i8, ptr %11, i64 8
  %29 = load i64, ptr %28, align 8
  %.not = icmp ult i64 %29, %2
  br i1 %.not, label %30, label %43

30:                                               ; preds = %27
  %31 = getelementptr inbounds i8, ptr %0, i64 64
  %32 = load ptr, ptr %31, align 8
  %33 = add nuw i64 %29, 1
  %34 = load ptr, ptr %11, align 8
  %35 = load ptr, ptr %32, align 8
  %36 = getelementptr inbounds i8, ptr %35, i64 24
  %37 = load ptr, ptr %36, align 8
  invoke void %37(ptr noundef nonnull align 8 dereferenceable(16) %32, i64 noundef %1, i64 noundef %33, ptr noundef %34)
          to label %38 unwind label %41

38:                                               ; preds = %30
  %39 = load i64, ptr %28, align 8
  %40 = add i64 %39, 1
  br label %43

41:                                               ; preds = %30
  %42 = landingpad { ptr, i32 }
          cleanup
  call void @_ZNSt7__cxx1112basic_stringIcSt11char_traitsIcESaIcEED2Ev(ptr noundef nonnull align 8 dereferenceable(32) %11) #26
  br label %52

43:                                               ; preds = %27, %38
  %44 = phi i64 [ %39, %38 ], [ %29, %27 ]
  %.0 = phi i64 [ %40, %38 ], [ -12, %27 ]
  %45 = load ptr, ptr %11, align 8
  %46 = getelementptr inbounds i8, ptr %11, i64 16
  %47 = icmp eq ptr %45, %46
  br i1 %47, label %_ZNKSt7__cxx1112basic_stringIcSt11char_traitsIcESaIcEE11_M_is_localEv.exit.thread.i.i, label %_ZNKSt7__cxx1112basic_stringIcSt11char_traitsIcESaIcEE11_M_is_localEv.exit.i.i

_ZNKSt7__cxx1112basic_stringIcSt11char_traitsIcESaIcEE11_M_is_localEv.exit.thread.i.i: ; preds = %43
  %48 = icmp ult i64 %44, 16
  call void @llvm.assume(i1 %48)
  br label %_ZNSt7__cxx1112basic_stringIcSt11char_traitsIcESaIcEED2Ev.exit

_ZNKSt7__cxx1112basic_stringIcSt11char_traitsIcESaIcEE11_M_is_localEv.exit.i.i: ; preds = %43
  call void @_ZdlPv(ptr noundef %45) #29
  br label %_ZNSt7__cxx1112basic_stringIcSt11char_traitsIcESaIcEED2Ev.exit

_ZNSt7__cxx1112basic_stringIcSt11char_traitsIcESaIcEED2Ev.exit: ; preds = %_ZNKSt7__cxx1112basic_stringIcSt11char_traitsIcESaIcEE11_M_is_localEv.exit.thread.i.i, %_ZNKSt7__cxx1112basic_stringIcSt11char_traitsIcESaIcEE11_M_is_localEv.exit.i.i
  call void @_ZNSaIcED2Ev(ptr noundef nonnull align 1 dereferenceable(1) %11) #26
  br label %49

49:                                               ; preds = %_ZNSt7__cxx1112basic_stringIcSt11char_traitsIcESaIcEED2Ev.exit, %16
  %.1 = phi i64 [ %20, %16 ], [ %.0, %_ZNSt7__cxx1112basic_stringIcSt11char_traitsIcESaIcEED2Ev.exit ]
  %50 = load ptr, ptr %9, align 8
  %.not.i.i.i = icmp eq ptr %50, null
  br i1 %.not.i.i.i, label %_ZNSt6vectorIcSaIcEED2Ev.exit, label %51

51:                                               ; preds = %49
  call void @_ZdlPv(ptr noundef nonnull %50) #29
  br label %_ZNSt6vectorIcSaIcEED2Ev.exit

_ZNSt6vectorIcSaIcEED2Ev.exit:                    ; preds = %49, %51
  call void @_ZNSaIcED2Ev(ptr noundef nonnull align 1 dereferenceable(1) %9) #26
  ret i64 %.1

52:                                               ; preds = %41, %23
  %.pn = phi { ptr, i32 } [ %42, %41 ], [ %24, %23 ]
  call void @_ZNSt6vectorIcSaIcEED2Ev(ptr noundef nonnull align 8 dereferenceable(24) %9) #26
  br label %53

53:                                               ; preds = %52, %21
  %.pn.pn = phi { ptr, i32 } [ %.pn, %52 ], [ %22, %21 ]
  resume { ptr, i32 } %.pn.pn
}